target datalayout = "e-m:e-p270:32:32-p271:32:32-p272:64:64-i64:64-i128:128-f80:128-n8:16:32:64-S128"
target triple = "x86_64-pc-linux-gnu"

%class.GURL = type { %"class.std::__cxx11::basic_string", i8, %"struct.url::Parsed", %"class.std::unique_ptr" }
%"class.std::__cxx11::basic_string" = type { %"struct.std::__cxx11::basic_string<char>::_Alloc_hider", i64, %union.anon }
%"struct.std::__cxx11::basic_string<char>::_Alloc_hider" = type { ptr }
%union.anon = type { i64, [8 x i8] }
%"struct.url::Parsed" = type { %"struct.url::Component", %"struct.url::Component", %"struct.url::Component", %"struct.url::Component", %"struct.url::Component", %"struct.url::Component", %"struct.url::Component", %"struct.url::Component", ptr }
%"struct.url::Component" = type { i32, i32 }
%"class.std::unique_ptr" = type { %"struct.std::__uniq_ptr_data" }
%"struct.std::__uniq_ptr_data" = type { %"class.std::__uniq_ptr_impl" }
%"class.std::__uniq_ptr_impl" = type { %"class.std::tuple" }
%"class.std::tuple" = type { %"struct.std::_Tuple_impl" }
%"struct.std::_Tuple_impl" = type { %"struct.std::_Head_base.1" }
%"struct.std::_Head_base.1" = type { ptr }
%"class.url::CanonOutputT" = type { ptr, ptr, i32, i32 }
%"class.url::RawCanonOutputT" = type { %"class.url::CanonOutputT", [128 x i8] }
%"struct.url::CanonHostInfo" = type { i32, i32, %"struct.url::Component", [16 x i8] }

@_ZTVN3url12CanonOutputTIcEE = linkonce_odr unnamed_addr constant { [5 x ptr] } { [5 x ptr] [ptr null, ptr @_ZTIN3url12CanonOutputTIcEE, ptr @_ZN3url12CanonOutputTIcED2Ev, ptr @_ZN3url12CanonOutputTIcED0Ev, ptr @__cxa_pure_virtual] }, comdat, align 8

; Function Attrs: mustprogress nounwind uwtable
define linkonce_odr void @_ZN3url12CanonOutputTIcED2Ev(ptr noundef nonnull align 8 dereferenceable(24) %0) unnamed_addr #1 comdat align 2 {
  %2 = alloca ptr, align 8
  store ptr %0, ptr %2, align 8, !tbaa !151
  ret void
}

; Function Attrs: noinline noreturn nounwind uwtable
define linkonce_odr hidden void @__clang_call_terminate(ptr noundef %0) #11 comdat {
  %2 = call ptr @__cxa_begin_catch(ptr %0) #15
  call void @_ZSt9terminatev() #16
  unreachable
}

; Function Attrs: mustprogress nounwind uwtable
define available_externally noundef ptr @_ZNKSt7__cxx1112basic_stringIcSt11char_traitsIcESaIcEE7_M_dataEv(ptr noundef nonnull align 8 dereferenceable(32) %0) #1 align 2 {
  %2 = alloca ptr, align 8
  store ptr %0, ptr %2, align 8, !tbaa !25
  %3 = load ptr, ptr %2, align 8
  %4 = getelementptr inbounds nuw %"class.std::__cxx11::basic_string", ptr %3, i32 0, i32 0
  %5 = getelementptr inbounds nuw %"struct.std::__cxx11::basic_string<char>::_Alloc_hider", ptr %4, i32 0, i32 0
  %6 = load ptr, ptr %5, align 8, !tbaa !115
  ret ptr %6
}

; Function Attrs: mustprogress nounwind uwtable
define linkonce_odr void @_ZN3url9ComponentC2Ev(ptr noundef nonnull align 4 dereferenceable(8) %0) unnamed_addr #1 comdat align 2 {
  %2 = alloca ptr, align 8
  store ptr %0, ptr %2, align 8, !tbaa !76
  %3 = load ptr, ptr %2, align 8
  %4 = getelementptr inbounds nuw %"struct.url::Component", ptr %3, i32 0, i32 0
  store i32 0, ptr %4, align 4, !tbaa !78
  %5 = getelementptr inbounds nuw %"struct.url::Component", ptr %3, i32 0, i32 1
  store i32 -1, ptr %5, align 4, !tbaa !79
  ret void
}

; Function Attrs: mustprogress nounwind uwtable
define linkonce_odr void @_ZN3url12CanonOutputTIcEC2Ev(ptr noundef nonnull align 8 dereferenceable(24) %0) unnamed_addr #1 comdat align 2 {
  %2 = alloca ptr, align 8
  store ptr %0, ptr %2, align 8, !tbaa !151
  %3 = load ptr, ptr %2, align 8
  store ptr getelementptr inbounds inrange(-16, 24) ({ [5 x ptr] }, ptr @_ZTVN3url12CanonOutputTIcEE, i32 0, i32 0, i32 2), ptr %3, align 8, !tbaa !85
  %4 = getelementptr inbounds nuw %"class.url::CanonOutputT", ptr %3, i32 0, i32 1
  store ptr null, ptr %4, align 8, !tbaa !87
  %5 = getelementptr inbounds nuw %"class.url::CanonOutputT", ptr %3, i32 0, i32 2
  store i32 0, ptr %5, align 8, !tbaa !89
  %6 = getelementptr inbounds nuw %"class.url::CanonOutputT", ptr %3, i32 0, i32 3
  store i32 0, ptr %6, align 4, !tbaa !153
  ret void
}

; Function Attrs: mustprogress nounwind uwtable
define available_externally noundef i64 @_ZNKSt7__cxx1112basic_stringIcSt11char_traitsIcESaIcEE4sizeEv(ptr noundef nonnull align 8 dereferenceable(32) %0) #1 align 2 {
  %2 = alloca ptr, align 8
  store ptr %0, ptr %2, align 8, !tbaa !25
  %3 = load ptr, ptr %2, align 8
  %4 = getelementptr inbounds nuw %"class.std::__cxx11::basic_string", ptr %3, i32 0, i32 1
  %5 = load i64, ptr %4, align 8, !tbaa !52
  ret i64 %5
}

; Function Attrs: mustprogress nounwind uwtable
define linkonce_odr void @_ZN3url15RawCanonOutputTIcLi128EED2Ev(ptr noundef nonnull align 8 dereferenceable(152) %0) unnamed_addr #1 comdat align 2 {
  %2 = alloca ptr, align 8
  store ptr %0, ptr %2, align 8, !tbaa !83
  %3 = load ptr, ptr %2, align 8
  store ptr getelementptr inbounds inrange(-16, 24) ({ [5 x ptr] }, ptr @_ZTVN3url15RawCanonOutputTIcLi128EEE, i32 0, i32 0, i32 2), ptr %3, align 8, !tbaa !85
  %4 = getelementptr inbounds nuw %"class.url::CanonOutputT", ptr %3, i32 0, i32 1
  %5 = load ptr, ptr %4, align 8, !tbaa !87
  %6 = getelementptr inbounds nuw %"class.url::RawCanonOutputT", ptr %3, i32 0, i32 1
  %7 = getelementptr inbounds [128 x i8], ptr %6, i64 0, i64 0
  %8 = icmp ne ptr %5, %7
  br i1 %8, label %9, label %15

9:                                                ; preds = %1
  %10 = getelementptr inbounds nuw %"class.url::CanonOutputT", ptr %3, i32 0, i32 1
  %11 = load ptr, ptr %10, align 8, !tbaa !87
  %12 = icmp eq ptr %11, null
  br i1 %12, label %14, label %13

13:                                               ; preds = %9
  call void @_ZdaPv(ptr noundef %11) #18
  br label %14

14:                                               ; preds = %13, %9
  br label %15

15:                                               ; preds = %14, %1
  call void @_ZN3url12CanonOutputTIcED2Ev(ptr noundef nonnull align 8 dereferenceable(24) %3) #15
  ret void
}

; Function Attrs: mustprogress nounwind uwtable
define linkonce_odr noundef zeroext i1 @_ZNK3url13CanonHostInfo11IsIPAddressEv(ptr noundef nonnull align 4 dereferenceable(32) %0) #1 comdat align 2 {
  %2 = alloca ptr, align 8
  store ptr %0, ptr %2, align 8, !tbaa !90
  %3 = load ptr, ptr %2, align 8
  %4 = getelementptr inbounds nuw %"struct.url::CanonHostInfo", ptr %3, i32 0, i32 0
  %5 = load i32, ptr %4, align 4, !tbaa !92
  %6 = icmp eq i32 %5, 2
  br i1 %6, label %11, label %7

7:                                                ; preds = %1
  %8 = getelementptr inbounds nuw %"struct.url::CanonHostInfo", ptr %3, i32 0, i32 0
  %9 = load i32, ptr %8, align 4, !tbaa !92
  %10 = icmp eq i32 %9, 3
  br label %11

11:                                               ; preds = %7, %1
  %12 = phi i1 [ true, %1 ], [ %10, %7 ]
  ret i1 %12
}

; Function Attrs: mustprogress nounwind uwtable
define available_externally noundef ptr @_ZNKSt7__cxx1112basic_stringIcSt11char_traitsIcESaIcEE5c_strEv(ptr noundef nonnull align 8 dereferenceable(32) %0) #1 align 2 personality ptr @__gxx_personality_v0 {
  %2 = alloca ptr, align 8
  store ptr %0, ptr %2, align 8, !tbaa !25
  %3 = load ptr, ptr %2, align 8
  %4 = invoke noundef ptr @_ZNKSt7__cxx1112basic_stringIcSt11char_traitsIcESaIcEE7_M_dataEv(ptr noundef nonnull align 8 dereferenceable(32) %3)
          to label %5 unwind label %6

5:                                                ; preds = %1
  ret ptr %4

6:                                                ; preds = %1
  %7 = landingpad { ptr, i32 }
          catch ptr null
  %8 = extractvalue { ptr, i32 } %7, 0
  call void @__clang_call_terminate(ptr %8) #16
  unreachable
}

; Function Attrs: mustprogress uwtable
define linkonce_odr void @_ZN3url13CanonHostInfoC2Ev(ptr noundef nonnull align 4 dereferenceable(32) %0) unnamed_addr #0 comdat align 2 {
  %2 = alloca ptr, align 8
  store ptr %0, ptr %2, align 8, !tbaa !90
  %3 = load ptr, ptr %2, align 8
  %4 = getelementptr inbounds nuw %"struct.url::CanonHostInfo", ptr %3, i32 0, i32 0
  store i32 0, ptr %4, align 4, !tbaa !92
  %5 = getelementptr inbounds nuw %"struct.url::CanonHostInfo", ptr %3, i32 0, i32 1
  store i32 0, ptr %5, align 4, !tbaa !95
  %6 = getelementptr inbounds nuw %"struct.url::CanonHostInfo", ptr %3, i32 0, i32 2
  call void @_ZN3url9ComponentC2Ev(ptr noundef nonnull align 4 dereferenceable(8) %6)
  ret void
}

; Function Attrs: mustprogress uwtable
define linkonce_odr void @_ZN3url15RawCanonOutputTIcLi128EEC2Ev(ptr noundef nonnull align 8 dereferenceable(152) %0) unnamed_addr #0 comdat align 2 {
  %2 = alloca ptr, align 8
  store ptr %0, ptr %2, align 8, !tbaa !83
  %3 = load ptr, ptr %2, align 8
  call void @_ZN3url12CanonOutputTIcEC2Ev(ptr noundef nonnull align 8 dereferenceable(24) %3)
  store ptr getelementptr inbounds inrange(-16, 24) ({ [5 x ptr] }, ptr @_ZTVN3url15RawCanonOutputTIcLi128EEE, i32 0, i32 0, i32 2), ptr %3, align 8, !tbaa !85
  %4 = getelementptr inbounds nuw %"class.url::RawCanonOutputT", ptr %3, i32 0, i32 1
  %5 = getelementptr inbounds [128 x i8], ptr %4, i64 0, i64 0
  %6 = getelementptr inbounds nuw %"class.url::CanonOutputT", ptr %3, i32 0, i32 1
  store ptr %5, ptr %6, align 8, !tbaa !87
  %7 = getelementptr inbounds nuw %"class.url::CanonOutputT", ptr %3, i32 0, i32 2
  store i32 128, ptr %7, align 8, !tbaa !89
  ret void
}

; Function Attrs: mustprogress nounwind uwtable
define available_externally noundef zeroext i1 @_ZNKSt7__cxx1112basic_stringIcSt11char_traitsIcESaIcEE5emptyEv(ptr noundef nonnull align 8 dereferenceable(32) %0) #1 align 2 {
  %2 = alloca ptr, align 8
  store ptr %0, ptr %2, align 8, !tbaa !25
  %3 = load ptr, ptr %2, align 8
  %4 = call noundef i64 @_ZNKSt7__cxx1112basic_stringIcSt11char_traitsIcESaIcEE4sizeEv(ptr noundef nonnull align 8 dereferenceable(32) %3) #15
  %5 = icmp eq i64 %4, 0
  ret i1 %5
}

; Function Attrs: mustprogress uwtable
define noundef zeroext i1 @_ZNK4GURL15HostIsIPAddressEv(ptr noundef nonnull align 8 dereferenceable(120) %0) #0 align 2 personality ptr @__gxx_personality_v0 {
  %2 = alloca i1, align 1
  %3 = alloca ptr, align 8
  %4 = alloca %"class.url::RawCanonOutputT", align 8
  %5 = alloca %"struct.url::CanonHostInfo", align 4
  %6 = alloca ptr, align 8
  %7 = alloca i32, align 4
  store ptr %0, ptr %3, align 8, !tbaa !3
  %8 = load ptr, ptr %3, align 8
  %9 = getelementptr inbounds nuw %class.GURL, ptr %8, i32 0, i32 1
  %10 = load i8, ptr %9, align 8, !tbaa !8, !range !29, !noundef !30
  %11 = trunc i8 %10 to i1
  br i1 %11, label %12, label %15

12:                                               ; preds = %1
  %13 = getelementptr inbounds nuw %class.GURL, ptr %8, i32 0, i32 0
  %14 = call noundef zeroext i1 @_ZNKSt7__cxx1112basic_stringIcSt11char_traitsIcESaIcEE5emptyEv(ptr noundef nonnull align 8 dereferenceable(32) %13) #15
  br i1 %14, label %15, label %16

15:                                               ; preds = %12, %1
  store i1 false, ptr %2, align 1
  br label %29

16:                                               ; preds = %12
  call void @llvm.lifetime.start.p0(i64 152, ptr %4) #15
  call void @_ZN3url15RawCanonOutputTIcLi128EEC2Ev(ptr noundef nonnull align 8 dereferenceable(152) %4)
  call void @llvm.lifetime.start.p0(i64 32, ptr %5) #15
  invoke void @_ZN3url13CanonHostInfoC2Ev(ptr noundef nonnull align 4 dereferenceable(32) %5)
          to label %17 unwind label %25

17:                                               ; preds = %16
  %18 = getelementptr inbounds nuw %class.GURL, ptr %8, i32 0, i32 0
  %19 = call noundef ptr @_ZNKSt7__cxx1112basic_stringIcSt11char_traitsIcESaIcEE5c_strEv(ptr noundef nonnull align 8 dereferenceable(32) %18) #15
  %20 = getelementptr inbounds nuw %class.GURL, ptr %8, i32 0, i32 2
  %21 = getelementptr inbounds nuw %"struct.url::Parsed", ptr %20, i32 0, i32 3
  invoke void @_ZN3url21CanonicalizeIPAddressEPKcRKNS_9ComponentEPNS_12CanonOutputTIcEEPNS_13CanonHostInfoE(ptr noundef %19, ptr noundef nonnull align 4 dereferenceable(8) %21, ptr noundef %4, ptr noundef %5)
          to label %22 unwind label %25

22:                                               ; preds = %17
  %23 = invoke noundef zeroext i1 @_ZNK3url13CanonHostInfo11IsIPAddressEv(ptr noundef nonnull align 4 dereferenceable(32) %5)
          to label %24 unwind label %25

24:                                               ; preds = %22
  store i1 %23, ptr %2, align 1
  call void @llvm.lifetime.end.p0(i64 32, ptr %5) #15
  call void @_ZN3url15RawCanonOutputTIcLi128EED2Ev(ptr noundef nonnull align 8 dereferenceable(152) %4) #15
  call void @llvm.lifetime.end.p0(i64 152, ptr %4) #15
  br label %29

25:                                               ; preds = %22, %17, %16
  %26 = landingpad { ptr, i32 }
          cleanup
  %27 = extractvalue { ptr, i32 } %26, 0
  store ptr %27, ptr %6, align 8
  %28 = extractvalue { ptr, i32 } %26, 1
  store i32 %28, ptr %7, align 4
  call void @llvm.lifetime.end.p0(i64 32, ptr %5) #15
  call void @_ZN3url15RawCanonOutputTIcLi128EED2Ev(ptr noundef nonnull align 8 dereferenceable(152) %4) #15
  call void @llvm.lifetime.end.p0(i64 152, ptr %4) #15
  br label %31

29:                                               ; preds = %24, %15
  %30 = load i1, ptr %2, align 1
  ret i1 %30

31:                                               ; preds = %25
  %32 = load ptr, ptr %6, align 8
  %33 = load i32, ptr %7, align 4
  %34 = insertvalue { ptr, i32 } poison, ptr %32, 0
  %35 = insertvalue { ptr, i32 } %34, i32 %33, 1
  resume { ptr, i32 } %35
}