; Function Attrs: mustprogress uwtable
define noundef zeroext i1 @_ZNK4GURL15HostIsIPAddressEv(ptr noundef nonnull align 8 dereferenceable(120) %0) local_unnamed_addr #0 align 2 personality ptr @__gxx_personality_v0 {
  %2 = alloca %"class.url::RawCanonOutputT", align 8
  %3 = alloca %"struct.url::CanonHostInfo", align 4
  %4 = getelementptr inbounds nuw i8, ptr %0, i64 32
  %5 = load i8, ptr %4, align 8, !tbaa !13, !range !30, !noundef !31
  %6 = trunc nuw i8 %5 to i1
  %7 = getelementptr inbounds nuw i8, ptr %0, i64 8
  %8 = load i64, ptr %7, align 8
  %9 = icmp ne i64 %8, 0
  %or.cond.not = select i1 %6, i1 %9, i1 false
  br i1 %or.cond.not, label %10, label %30

10:                                               ; preds = %1
  call void @llvm.lifetime.start.p0(i64 152, ptr nonnull %2) #17
  %11 = getelementptr inbounds nuw i8, ptr %2, i64 8
  %12 = getelementptr inbounds nuw i8, ptr %2, i64 16
  store i64 128, ptr %12, align 8
  store ptr getelementptr inbounds nuw inrange(-16, 24) (i8, ptr @_ZTVN3url15RawCanonOutputTIcLi128EEE, i64 16), ptr %2, align 8, !tbaa !66
  %13 = getelementptr inbounds nuw i8, ptr %2, i64 24
  store ptr %13, ptr %11, align 8, !tbaa !68
  call void @llvm.lifetime.start.p0(i64 32, ptr nonnull %3) #17
  store i32 0, ptr %3, align 4, !tbaa !70
  %14 = getelementptr inbounds nuw i8, ptr %3, i64 4
  store i32 0, ptr %14, align 4, !tbaa !73
  %15 = getelementptr inbounds nuw i8, ptr %3, i64 8
  store i32 0, ptr %15, align 4, !tbaa !52
  %16 = getelementptr inbounds nuw i8, ptr %3, i64 12
  store i32 -1, ptr %16, align 4, !tbaa !53
  %17 = load ptr, ptr %0, align 8, !tbaa !28
  %18 = getelementptr inbounds nuw i8, ptr %0, i64 64
  invoke void @_ZN3url21CanonicalizeIPAddressEPKcRKNS_9ComponentEPNS_12CanonOutputTIcEEPNS_13CanonHostInfoE(ptr noundef %17, ptr noundef nonnull align 4 dereferenceable(8) %18, ptr noundef nonnull %2, ptr noundef nonnull %3)
          to label %19 unwind label %25

19:                                               ; preds = %10
  %20 = load i32, ptr %3, align 4, !tbaa !70
  %21 = and i32 %20, -2
  %spec.select.i = icmp eq i32 %21, 2
  call void @llvm.lifetime.end.p0(i64 32, ptr nonnull %3) #17
  store ptr getelementptr inbounds nuw inrange(-16, 24) (i8, ptr @_ZTVN3url15RawCanonOutputTIcLi128EEE, i64 16), ptr %2, align 8, !tbaa !66
  %22 = load ptr, ptr %11, align 8, !tbaa !68
  %.not.i = icmp eq ptr %22, %13
  %23 = icmp eq ptr %22, null
  %or.cond.i = or i1 %.not.i, %23
  br i1 %or.cond.i, label %_ZN3url15RawCanonOutputTIcLi128EED2Ev.exit, label %24

24:                                               ; preds = %19
  call void @_ZdaPv(ptr noundef nonnull %22) #16
  br label %_ZN3url15RawCanonOutputTIcLi128EED2Ev.exit

_ZN3url15RawCanonOutputTIcLi128EED2Ev.exit:       ; preds = %19, %24
  call void @llvm.lifetime.end.p0(i64 152, ptr nonnull %2) #17
  br label %30

25:                                               ; preds = %10
  %26 = landingpad { ptr, i32 }
          cleanup
  call void @llvm.lifetime.end.p0(i64 32, ptr nonnull %3) #17
  store ptr getelementptr inbounds nuw inrange(-16, 24) (i8, ptr @_ZTVN3url15RawCanonOutputTIcLi128EEE, i64 16), ptr %2, align 8, !tbaa !66
  %27 = load ptr, ptr %11, align 8, !tbaa !68
  %.not.i3 = icmp eq ptr %27, %13
  %28 = icmp eq ptr %27, null
  %or.cond.i4 = or i1 %.not.i3, %28
  br i1 %or.cond.i4, label %_ZN3url15RawCanonOutputTIcLi128EED2Ev.exit5, label %29

29:                                               ; preds = %25
  call void @_ZdaPv(ptr noundef nonnull %27) #16
  br label %_ZN3url15RawCanonOutputTIcLi128EED2Ev.exit5

_ZN3url15RawCanonOutputTIcLi128EED2Ev.exit5:      ; preds = %25, %29
  call void @llvm.lifetime.end.p0(i64 152, ptr nonnull %2) #17
  resume { ptr, i32 } %26

30:                                               ; preds = %1, %_ZN3url15RawCanonOutputTIcLi128EED2Ev.exit
  %.0 = phi i1 [ %spec.select.i, %_ZN3url15RawCanonOutputTIcLi128EED2Ev.exit ], [ false, %1 ]
  ret i1 %.0
}